target datalayout = "e-m:e-p270:32:32-p271:32:32-p272:64:64-i64:64-i128:128-f80:128-n8:16:32:64-S128"
target triple = "x86_64-pc-linux-gnu"

%struct.par_shapes_mesh_s = type { ptr, i32, ptr, i32, ptr, ptr }

; Function Attrs: nounwind uwtable
define hidden void @par_shapes_compute_aabb(ptr noundef %0, ptr noundef %1) #0 {
  %3 = alloca ptr, align 8
  %4 = alloca ptr, align 8
  %5 = alloca ptr, align 8
  %6 = alloca i32, align 4
  store ptr %0, ptr %3, align 8
  store ptr %1, ptr %4, align 8
  call void @llvm.lifetime.start.p0(i64 8, ptr %5) #16
  %7 = load ptr, ptr %3, align 8
  %8 = getelementptr inbounds nuw %struct.par_shapes_mesh_s, ptr %7, i32 0, i32 0
  %9 = load ptr, ptr %8, align 8
  store ptr %9, ptr %5, align 8
  %10 = load ptr, ptr %5, align 8
  %11 = getelementptr inbounds float, ptr %10, i64 0
  %12 = load float, ptr %11, align 4
  %13 = load ptr, ptr %4, align 8
  %14 = getelementptr inbounds float, ptr %13, i64 3
  store float %12, ptr %14, align 4
  %15 = load ptr, ptr %4, align 8
  %16 = getelementptr inbounds float, ptr %15, i64 0
  store float %12, ptr %16, align 4
  %17 = load ptr, ptr %5, align 8
  %18 = getelementptr inbounds float, ptr %17, i64 1
  %19 = load float, ptr %18, align 4
  %20 = load ptr, ptr %4, align 8
  %21 = getelementptr inbounds float, ptr %20, i64 4
  store float %19, ptr %21, align 4
  %22 = load ptr, ptr %4, align 8
  %23 = getelementptr inbounds float, ptr %22, i64 1
  store float %19, ptr %23, align 4
  %24 = load ptr, ptr %5, align 8
  %25 = getelementptr inbounds float, ptr %24, i64 2
  %26 = load float, ptr %25, align 4
  %27 = load ptr, ptr %4, align 8
  %28 = getelementptr inbounds float, ptr %27, i64 5
  store float %26, ptr %28, align 4
  %29 = load ptr, ptr %4, align 8
  %30 = getelementptr inbounds float, ptr %29, i64 2
  store float %26, ptr %30, align 4
  %31 = load ptr, ptr %5, align 8
  %32 = getelementptr inbounds float, ptr %31, i64 3
  store ptr %32, ptr %5, align 8
  call void @llvm.lifetime.start.p0(i64 4, ptr %6) #16
  store i32 1, ptr %6, align 4
  br label %33

33:                                               ; preds = %155, %2
  %34 = load i32, ptr %6, align 4
  %35 = load ptr, ptr %3, align 8
  %36 = getelementptr inbounds nuw %struct.par_shapes_mesh_s, ptr %35, i32 0, i32 1
  %37 = load i32, ptr %36, align 8
  %38 = icmp slt i32 %34, %37
  br i1 %38, label %40, label %39

39:                                               ; preds = %33
  call void @llvm.lifetime.end.p0(i64 4, ptr %6) #16
  br label %160

40:                                               ; preds = %33
  %41 = load ptr, ptr %5, align 8
  %42 = getelementptr inbounds float, ptr %41, i64 0
  %43 = load float, ptr %42, align 4
  %44 = load ptr, ptr %4, align 8
  %45 = getelementptr inbounds float, ptr %44, i64 0
  %46 = load float, ptr %45, align 4
  %47 = fcmp ogt float %43, %46
  br i1 %47, label %48, label %52

48:                                               ; preds = %40
  %49 = load ptr, ptr %4, align 8
  %50 = getelementptr inbounds float, ptr %49, i64 0
  %51 = load float, ptr %50, align 4
  br label %56

52:                                               ; preds = %40
  %53 = load ptr, ptr %5, align 8
  %54 = getelementptr inbounds float, ptr %53, i64 0
  %55 = load float, ptr %54, align 4
  br label %56

56:                                               ; preds = %52, %48
  %57 = phi float [ %51, %48 ], [ %55, %52 ]
  %58 = load ptr, ptr %4, align 8
  %59 = getelementptr inbounds float, ptr %58, i64 0
  store float %57, ptr %59, align 4
  %60 = load ptr, ptr %5, align 8
  %61 = getelementptr inbounds float, ptr %60, i64 1
  %62 = load float, ptr %61, align 4
  %63 = load ptr, ptr %4, align 8
  %64 = getelementptr inbounds float, ptr %63, i64 1
  %65 = load float, ptr %64, align 4
  %66 = fcmp ogt float %62, %65
  br i1 %66, label %67, label %71

67:                                               ; preds = %56
  %68 = load ptr, ptr %4, align 8
  %69 = getelementptr inbounds float, ptr %68, i64 1
  %70 = load float, ptr %69, align 4
  br label %75

71:                                               ; preds = %56
  %72 = load ptr, ptr %5, align 8
  %73 = getelementptr inbounds float, ptr %72, i64 1
  %74 = load float, ptr %73, align 4
  br label %75

75:                                               ; preds = %71, %67
  %76 = phi float [ %70, %67 ], [ %74, %71 ]
  %77 = load ptr, ptr %4, align 8
  %78 = getelementptr inbounds float, ptr %77, i64 1
  store float %76, ptr %78, align 4
  %79 = load ptr, ptr %5, align 8
  %80 = getelementptr inbounds float, ptr %79, i64 2
  %81 = load float, ptr %80, align 4
  %82 = load ptr, ptr %4, align 8
  %83 = getelementptr inbounds float, ptr %82, i64 2
  %84 = load float, ptr %83, align 4
  %85 = fcmp ogt float %81, %84
  br i1 %85, label %86, label %90

86:                                               ; preds = %75
  %87 = load ptr, ptr %4, align 8
  %88 = getelementptr inbounds float, ptr %87, i64 2
  %89 = load float, ptr %88, align 4
  br label %94

90:                                               ; preds = %75
  %91 = load ptr, ptr %5, align 8
  %92 = getelementptr inbounds float, ptr %91, i64 2
  %93 = load float, ptr %92, align 4
  br label %94

94:                                               ; preds = %90, %86
  %95 = phi float [ %89, %86 ], [ %93, %90 ]
  %96 = load ptr, ptr %4, align 8
  %97 = getelementptr inbounds float, ptr %96, i64 2
  store float %95, ptr %97, align 4
  %98 = load ptr, ptr %5, align 8
  %99 = getelementptr inbounds float, ptr %98, i64 0
  %100 = load float, ptr %99, align 4
  %101 = load ptr, ptr %4, align 8
  %102 = getelementptr inbounds float, ptr %101, i64 3
  %103 = load float, ptr %102, align 4
  %104 = fcmp ogt float %100, %103
  br i1 %104, label %105, label %109

105:                                              ; preds = %94
  %106 = load ptr, ptr %5, align 8
  %107 = getelementptr inbounds float, ptr %106, i64 0
  %108 = load float, ptr %107, align 4
  br label %113

109:                                              ; preds = %94
  %110 = load ptr, ptr %4, align 8
  %111 = getelementptr inbounds float, ptr %110, i64 3
  %112 = load float, ptr %111, align 4
  br label %113

113:                                              ; preds = %109, %105
  %114 = phi float [ %108, %105 ], [ %112, %109 ]
  %115 = load ptr, ptr %4, align 8
  %116 = getelementptr inbounds float, ptr %115, i64 3
  store float %114, ptr %116, align 4
  %117 = load ptr, ptr %5, align 8
  %118 = getelementptr inbounds float, ptr %117, i64 1
  %119 = load float, ptr %118, align 4
  %120 = load ptr, ptr %4, align 8
  %121 = getelementptr inbounds float, ptr %120, i64 4
  %122 = load float, ptr %121, align 4
  %123 = fcmp ogt float %119, %122
  br i1 %123, label %124, label %128

124:                                              ; preds = %113
  %125 = load ptr, ptr %5, align 8
  %126 = getelementptr inbounds float, ptr %125, i64 1
  %127 = load float, ptr %126, align 4
  br label %132

128:                                              ; preds = %113
  %129 = load ptr, ptr %4, align 8
  %130 = getelementptr inbounds float, ptr %129, i64 4
  %131 = load float, ptr %130, align 4
  br label %132

132:                                              ; preds = %128, %124
  %133 = phi float [ %127, %124 ], [ %131, %128 ]
  %134 = load ptr, ptr %4, align 8
  %135 = getelementptr inbounds float, ptr %134, i64 4
  store float %133, ptr %135, align 4
  %136 = load ptr, ptr %5, align 8
  %137 = getelementptr inbounds float, ptr %136, i64 2
  %138 = load float, ptr %137, align 4
  %139 = load ptr, ptr %4, align 8
  %140 = getelementptr inbounds float, ptr %139, i64 5
  %141 = load float, ptr %140, align 4
  %142 = fcmp ogt float %138, %141
  br i1 %142, label %143, label %147

143:                                              ; preds = %132
  %144 = load ptr, ptr %5, align 8
  %145 = getelementptr inbounds float, ptr %144, i64 2
  %146 = load float, ptr %145, align 4
  br label %151

147:                                              ; preds = %132
  %148 = load ptr, ptr %4, align 8
  %149 = getelementptr inbounds float, ptr %148, i64 5
  %150 = load float, ptr %149, align 4
  br label %151

151:                                              ; preds = %147, %143
  %152 = phi float [ %146, %143 ], [ %150, %147 ]
  %153 = load ptr, ptr %4, align 8
  %154 = getelementptr inbounds float, ptr %153, i64 5
  store float %152, ptr %154, align 4
  br label %155

155:                                              ; preds = %151
  %156 = load i32, ptr %6, align 4
  %157 = add nsw i32 %156, 1
  store i32 %157, ptr %6, align 4
  %158 = load ptr, ptr %5, align 8
  %159 = getelementptr inbounds float, ptr %158, i64 3
  store ptr %159, ptr %5, align 8
  br label %33

160:                                              ; preds = %39
  call void @llvm.lifetime.end.p0(i64 8, ptr %5) #16
  ret void
}