; Function Attrs: nofree norecurse nosync nounwind memory(read, argmem: readwrite, inaccessiblemem: none) uwtable
define hidden void @par_shapes_compute_aabb(ptr noundef readonly captures(none) %0, ptr noundef writeonly captures(none) initializes((0, 24)) %1) local_unnamed_addr #21 {
  %3 = load ptr, ptr %0, align 8
  %4 = load float, ptr %3, align 4
  %5 = getelementptr inbounds nuw i8, ptr %1, i64 12
  store float %4, ptr %5, align 4
  store float %4, ptr %1, align 4
  %6 = getelementptr inbounds nuw i8, ptr %3, i64 4
  %7 = load float, ptr %6, align 4
  %8 = getelementptr inbounds nuw i8, ptr %1, i64 16
  store float %7, ptr %8, align 4
  %9 = getelementptr inbounds nuw i8, ptr %1, i64 4
  store float %7, ptr %9, align 4
  %10 = getelementptr inbounds nuw i8, ptr %3, i64 8
  %11 = load float, ptr %10, align 4
  %12 = getelementptr inbounds nuw i8, ptr %1, i64 20
  store float %11, ptr %12, align 4
  %13 = getelementptr inbounds nuw i8, ptr %1, i64 8
  store float %11, ptr %13, align 4
  %14 = getelementptr inbounds nuw i8, ptr %0, i64 8
  %15 = load i32, ptr %14, align 8
  %16 = icmp sgt i32 %15, 1
  br i1 %16, label %.lr.ph, label %._crit_edge

._crit_edge:                                      ; preds = %.lr.ph, %2
  ret void

.lr.ph:                                           ; preds = %2, %.lr.ph
  %17 = phi float [ %41, %.lr.ph ], [ %11, %2 ]
  %18 = phi float [ %38, %.lr.ph ], [ %7, %2 ]
  %19 = phi float [ %35, %.lr.ph ], [ %4, %2 ]
  %20 = phi float [ %32, %.lr.ph ], [ %11, %2 ]
  %21 = phi float [ %28, %.lr.ph ], [ %7, %2 ]
  %22 = phi float [ %., %.lr.ph ], [ %4, %2 ]
  %.058 = phi i32 [ %42, %.lr.ph ], [ 1, %2 ]
  %.pn57 = phi ptr [ %.044, %.lr.ph ], [ %3, %2 ]
  %.044 = getelementptr inbounds nuw i8, ptr %.pn57, i64 12
  %23 = load float, ptr %.044, align 4
  %24 = fcmp ogt float %23, %22
  %. = select i1 %24, float %22, float %23
  store float %., ptr %1, align 4
  %25 = getelementptr inbounds nuw i8, ptr %.pn57, i64 16
  %26 = load float, ptr %25, align 4
  %27 = fcmp ogt float %26, %21
  %28 = select i1 %27, float %21, float %26
  store float %28, ptr %9, align 4
  %29 = getelementptr inbounds nuw i8, ptr %.pn57, i64 20
  %30 = load float, ptr %29, align 4
  %31 = fcmp ogt float %30, %20
  %32 = select i1 %31, float %20, float %30
  store float %32, ptr %13, align 4
  %33 = load float, ptr %.044, align 4
  %34 = fcmp ogt float %33, %19
  %35 = select i1 %34, float %33, float %19
  store float %35, ptr %5, align 4
  %36 = load float, ptr %25, align 4
  %37 = fcmp ogt float %36, %18
  %38 = select i1 %37, float %36, float %18
  store float %38, ptr %8, align 4
  %39 = load float, ptr %29, align 4
  %40 = fcmp ogt float %39, %17
  %41 = select i1 %40, float %39, float %17
  store float %41, ptr %12, align 4
  %42 = add nuw nsw i32 %.058, 1
  %43 = load i32, ptr %14, align 8
  %44 = icmp slt i32 %42, %43
  br i1 %44, label %.lr.ph, label %._crit_edge
}